ARM GAS  /tmp/cc7HS69b.s 			page 1


   1              		.cpu cortex-m4
   2              		.arch armv7e-m
   3              		.fpu fpv4-sp-d16
   4              		.eabi_attribute 27, 1
   5              		.eabi_attribute 28, 1
   6              		.eabi_attribute 20, 1
   7              		.eabi_attribute 21, 1
   8              		.eabi_attribute 23, 3
   9              		.eabi_attribute 24, 1
  10              		.eabi_attribute 25, 1
  11              		.eabi_attribute 26, 1
  12              		.eabi_attribute 30, 1
  13              		.eabi_attribute 34, 1
  14              		.eabi_attribute 18, 4
  15              		.file	"arm_mat_add_f32.c"
  16              		.text
  17              	.Ltext0:
  18              		.cfi_sections	.debug_frame
  19              		.file 1 "Drivers/CMSIS/DSP/Source/MatrixFunctions/arm_mat_add_f32.c"
  20              		.section	.text.arm_mat_add_f32,"ax",%progbits
  21              		.align	1
  22              		.global	arm_mat_add_f32
  23              		.syntax unified
  24              		.thumb
  25              		.thumb_func
  27              	arm_mat_add_f32:
  28              	.LVL0:
  29              	.LFB135:
   1:Drivers/CMSIS/DSP/Source/MatrixFunctions/arm_mat_add_f32.c **** /* ----------------------------------------------------------------------
   2:Drivers/CMSIS/DSP/Source/MatrixFunctions/arm_mat_add_f32.c ****  * Project:      CMSIS DSP Library
   3:Drivers/CMSIS/DSP/Source/MatrixFunctions/arm_mat_add_f32.c ****  * Title:        arm_mat_add_f32.c
   4:Drivers/CMSIS/DSP/Source/MatrixFunctions/arm_mat_add_f32.c ****  * Description:  Floating-point matrix addition
   5:Drivers/CMSIS/DSP/Source/MatrixFunctions/arm_mat_add_f32.c ****  *
   6:Drivers/CMSIS/DSP/Source/MatrixFunctions/arm_mat_add_f32.c ****  * $Date:        27. January 2017
   7:Drivers/CMSIS/DSP/Source/MatrixFunctions/arm_mat_add_f32.c ****  * $Revision:    V.1.5.1
   8:Drivers/CMSIS/DSP/Source/MatrixFunctions/arm_mat_add_f32.c ****  *
   9:Drivers/CMSIS/DSP/Source/MatrixFunctions/arm_mat_add_f32.c ****  * Target Processor: Cortex-M cores
  10:Drivers/CMSIS/DSP/Source/MatrixFunctions/arm_mat_add_f32.c ****  * -------------------------------------------------------------------- */
  11:Drivers/CMSIS/DSP/Source/MatrixFunctions/arm_mat_add_f32.c **** /*
  12:Drivers/CMSIS/DSP/Source/MatrixFunctions/arm_mat_add_f32.c ****  * Copyright (C) 2010-2017 ARM Limited or its affiliates. All rights reserved.
  13:Drivers/CMSIS/DSP/Source/MatrixFunctions/arm_mat_add_f32.c ****  *
  14:Drivers/CMSIS/DSP/Source/MatrixFunctions/arm_mat_add_f32.c ****  * SPDX-License-Identifier: Apache-2.0
  15:Drivers/CMSIS/DSP/Source/MatrixFunctions/arm_mat_add_f32.c ****  *
  16:Drivers/CMSIS/DSP/Source/MatrixFunctions/arm_mat_add_f32.c ****  * Licensed under the Apache License, Version 2.0 (the License); you may
  17:Drivers/CMSIS/DSP/Source/MatrixFunctions/arm_mat_add_f32.c ****  * not use this file except in compliance with the License.
  18:Drivers/CMSIS/DSP/Source/MatrixFunctions/arm_mat_add_f32.c ****  * You may obtain a copy of the License at
  19:Drivers/CMSIS/DSP/Source/MatrixFunctions/arm_mat_add_f32.c ****  *
  20:Drivers/CMSIS/DSP/Source/MatrixFunctions/arm_mat_add_f32.c ****  * www.apache.org/licenses/LICENSE-2.0
  21:Drivers/CMSIS/DSP/Source/MatrixFunctions/arm_mat_add_f32.c ****  *
  22:Drivers/CMSIS/DSP/Source/MatrixFunctions/arm_mat_add_f32.c ****  * Unless required by applicable law or agreed to in writing, software
  23:Drivers/CMSIS/DSP/Source/MatrixFunctions/arm_mat_add_f32.c ****  * distributed under the License is distributed on an AS IS BASIS, WITHOUT
  24:Drivers/CMSIS/DSP/Source/MatrixFunctions/arm_mat_add_f32.c ****  * WARRANTIES OR CONDITIONS OF ANY KIND, either express or implied.
  25:Drivers/CMSIS/DSP/Source/MatrixFunctions/arm_mat_add_f32.c ****  * See the License for the specific language governing permissions and
  26:Drivers/CMSIS/DSP/Source/MatrixFunctions/arm_mat_add_f32.c ****  * limitations under the License.
  27:Drivers/CMSIS/DSP/Source/MatrixFunctions/arm_mat_add_f32.c ****  */
  28:Drivers/CMSIS/DSP/Source/MatrixFunctions/arm_mat_add_f32.c **** 
  29:Drivers/CMSIS/DSP/Source/MatrixFunctions/arm_mat_add_f32.c **** #include "arm_math.h"
ARM GAS  /tmp/cc7HS69b.s 			page 2


  30:Drivers/CMSIS/DSP/Source/MatrixFunctions/arm_mat_add_f32.c **** 
  31:Drivers/CMSIS/DSP/Source/MatrixFunctions/arm_mat_add_f32.c **** /**
  32:Drivers/CMSIS/DSP/Source/MatrixFunctions/arm_mat_add_f32.c ****  * @ingroup groupMatrix
  33:Drivers/CMSIS/DSP/Source/MatrixFunctions/arm_mat_add_f32.c ****  */
  34:Drivers/CMSIS/DSP/Source/MatrixFunctions/arm_mat_add_f32.c **** 
  35:Drivers/CMSIS/DSP/Source/MatrixFunctions/arm_mat_add_f32.c **** /**
  36:Drivers/CMSIS/DSP/Source/MatrixFunctions/arm_mat_add_f32.c ****  * @defgroup MatrixAdd Matrix Addition
  37:Drivers/CMSIS/DSP/Source/MatrixFunctions/arm_mat_add_f32.c ****  *
  38:Drivers/CMSIS/DSP/Source/MatrixFunctions/arm_mat_add_f32.c ****  * Adds two matrices.
  39:Drivers/CMSIS/DSP/Source/MatrixFunctions/arm_mat_add_f32.c ****  * \image html MatrixAddition.gif "Addition of two 3 x 3 matrices"
  40:Drivers/CMSIS/DSP/Source/MatrixFunctions/arm_mat_add_f32.c ****  *
  41:Drivers/CMSIS/DSP/Source/MatrixFunctions/arm_mat_add_f32.c ****  * The functions check to make sure that
  42:Drivers/CMSIS/DSP/Source/MatrixFunctions/arm_mat_add_f32.c ****  * <code>pSrcA</code>, <code>pSrcB</code>, and <code>pDst</code> have the same
  43:Drivers/CMSIS/DSP/Source/MatrixFunctions/arm_mat_add_f32.c ****  * number of rows and columns.
  44:Drivers/CMSIS/DSP/Source/MatrixFunctions/arm_mat_add_f32.c ****  */
  45:Drivers/CMSIS/DSP/Source/MatrixFunctions/arm_mat_add_f32.c **** 
  46:Drivers/CMSIS/DSP/Source/MatrixFunctions/arm_mat_add_f32.c **** /**
  47:Drivers/CMSIS/DSP/Source/MatrixFunctions/arm_mat_add_f32.c ****  * @addtogroup MatrixAdd
  48:Drivers/CMSIS/DSP/Source/MatrixFunctions/arm_mat_add_f32.c ****  * @{
  49:Drivers/CMSIS/DSP/Source/MatrixFunctions/arm_mat_add_f32.c ****  */
  50:Drivers/CMSIS/DSP/Source/MatrixFunctions/arm_mat_add_f32.c **** 
  51:Drivers/CMSIS/DSP/Source/MatrixFunctions/arm_mat_add_f32.c **** 
  52:Drivers/CMSIS/DSP/Source/MatrixFunctions/arm_mat_add_f32.c **** /**
  53:Drivers/CMSIS/DSP/Source/MatrixFunctions/arm_mat_add_f32.c ****  * @brief Floating-point matrix addition.
  54:Drivers/CMSIS/DSP/Source/MatrixFunctions/arm_mat_add_f32.c ****  * @param[in]       *pSrcA points to the first input matrix structure
  55:Drivers/CMSIS/DSP/Source/MatrixFunctions/arm_mat_add_f32.c ****  * @param[in]       *pSrcB points to the second input matrix structure
  56:Drivers/CMSIS/DSP/Source/MatrixFunctions/arm_mat_add_f32.c ****  * @param[out]      *pDst points to output matrix structure
  57:Drivers/CMSIS/DSP/Source/MatrixFunctions/arm_mat_add_f32.c ****  * @return     		The function returns either
  58:Drivers/CMSIS/DSP/Source/MatrixFunctions/arm_mat_add_f32.c ****  * <code>ARM_MATH_SIZE_MISMATCH</code> or <code>ARM_MATH_SUCCESS</code> based on the outcome of siz
  59:Drivers/CMSIS/DSP/Source/MatrixFunctions/arm_mat_add_f32.c ****  */
  60:Drivers/CMSIS/DSP/Source/MatrixFunctions/arm_mat_add_f32.c **** 
  61:Drivers/CMSIS/DSP/Source/MatrixFunctions/arm_mat_add_f32.c **** arm_status arm_mat_add_f32(
  62:Drivers/CMSIS/DSP/Source/MatrixFunctions/arm_mat_add_f32.c ****   const arm_matrix_instance_f32 * pSrcA,
  63:Drivers/CMSIS/DSP/Source/MatrixFunctions/arm_mat_add_f32.c ****   const arm_matrix_instance_f32 * pSrcB,
  64:Drivers/CMSIS/DSP/Source/MatrixFunctions/arm_mat_add_f32.c ****   arm_matrix_instance_f32 * pDst)
  65:Drivers/CMSIS/DSP/Source/MatrixFunctions/arm_mat_add_f32.c **** {
  30              		.loc 1 65 1 view -0
  31              		.cfi_startproc
  32              		@ args = 0, pretend = 0, frame = 0
  33              		@ frame_needed = 0, uses_anonymous_args = 0
  34              		@ link register save eliminated.
  35              		.loc 1 65 1 is_stmt 0 view .LVU1
  36 0000 10B4     		push	{r4}
  37              		.cfi_def_cfa_offset 4
  38              		.cfi_offset 4, -4
  66:Drivers/CMSIS/DSP/Source/MatrixFunctions/arm_mat_add_f32.c ****   float32_t *pIn1 = pSrcA->pData;                /* input data matrix pointer A  */
  39              		.loc 1 66 3 is_stmt 1 view .LVU2
  40              		.loc 1 66 14 is_stmt 0 view .LVU3
  41 0002 4368     		ldr	r3, [r0, #4]
  42              	.LVL1:
  67:Drivers/CMSIS/DSP/Source/MatrixFunctions/arm_mat_add_f32.c ****   float32_t *pIn2 = pSrcB->pData;                /* input data matrix pointer B  */
  43              		.loc 1 67 3 is_stmt 1 view .LVU4
  44              		.loc 1 67 14 is_stmt 0 view .LVU5
  45 0004 4968     		ldr	r1, [r1, #4]
  46              	.LVL2:
  68:Drivers/CMSIS/DSP/Source/MatrixFunctions/arm_mat_add_f32.c ****   float32_t *pOut = pDst->pData;                 /* output data matrix pointer   */
  47              		.loc 1 68 3 is_stmt 1 view .LVU6
ARM GAS  /tmp/cc7HS69b.s 			page 3


  48              		.loc 1 68 14 is_stmt 0 view .LVU7
  49 0006 5268     		ldr	r2, [r2, #4]
  50              	.LVL3:
  69:Drivers/CMSIS/DSP/Source/MatrixFunctions/arm_mat_add_f32.c **** 
  70:Drivers/CMSIS/DSP/Source/MatrixFunctions/arm_mat_add_f32.c **** #if defined (ARM_MATH_DSP)
  71:Drivers/CMSIS/DSP/Source/MatrixFunctions/arm_mat_add_f32.c **** 
  72:Drivers/CMSIS/DSP/Source/MatrixFunctions/arm_mat_add_f32.c ****   float32_t inA1, inA2, inB1, inB2, out1, out2;  /* temporary variables */
  51              		.loc 1 72 3 is_stmt 1 view .LVU8
  73:Drivers/CMSIS/DSP/Source/MatrixFunctions/arm_mat_add_f32.c **** 
  74:Drivers/CMSIS/DSP/Source/MatrixFunctions/arm_mat_add_f32.c **** #endif //      #if defined (ARM_MATH_DSP)
  75:Drivers/CMSIS/DSP/Source/MatrixFunctions/arm_mat_add_f32.c **** 
  76:Drivers/CMSIS/DSP/Source/MatrixFunctions/arm_mat_add_f32.c ****   uint32_t numSamples;                           /* total number of elements in the matrix  */
  52              		.loc 1 76 3 view .LVU9
  77:Drivers/CMSIS/DSP/Source/MatrixFunctions/arm_mat_add_f32.c ****   uint32_t blkCnt;                               /* loop counters */
  53              		.loc 1 77 3 view .LVU10
  78:Drivers/CMSIS/DSP/Source/MatrixFunctions/arm_mat_add_f32.c ****   arm_status status;                             /* status of matrix addition */
  54              		.loc 1 78 3 view .LVU11
  79:Drivers/CMSIS/DSP/Source/MatrixFunctions/arm_mat_add_f32.c **** 
  80:Drivers/CMSIS/DSP/Source/MatrixFunctions/arm_mat_add_f32.c **** #ifdef ARM_MATH_MATRIX_CHECK
  81:Drivers/CMSIS/DSP/Source/MatrixFunctions/arm_mat_add_f32.c ****   /* Check for matrix mismatch condition */
  82:Drivers/CMSIS/DSP/Source/MatrixFunctions/arm_mat_add_f32.c ****   if ((pSrcA->numRows != pSrcB->numRows) ||
  83:Drivers/CMSIS/DSP/Source/MatrixFunctions/arm_mat_add_f32.c ****      (pSrcA->numCols != pSrcB->numCols) ||
  84:Drivers/CMSIS/DSP/Source/MatrixFunctions/arm_mat_add_f32.c ****      (pSrcA->numRows != pDst->numRows) || (pSrcA->numCols != pDst->numCols))
  85:Drivers/CMSIS/DSP/Source/MatrixFunctions/arm_mat_add_f32.c ****   {
  86:Drivers/CMSIS/DSP/Source/MatrixFunctions/arm_mat_add_f32.c ****     /* Set status as ARM_MATH_SIZE_MISMATCH */
  87:Drivers/CMSIS/DSP/Source/MatrixFunctions/arm_mat_add_f32.c ****     status = ARM_MATH_SIZE_MISMATCH;
  88:Drivers/CMSIS/DSP/Source/MatrixFunctions/arm_mat_add_f32.c ****   }
  89:Drivers/CMSIS/DSP/Source/MatrixFunctions/arm_mat_add_f32.c ****   else
  90:Drivers/CMSIS/DSP/Source/MatrixFunctions/arm_mat_add_f32.c **** #endif
  91:Drivers/CMSIS/DSP/Source/MatrixFunctions/arm_mat_add_f32.c ****   {
  92:Drivers/CMSIS/DSP/Source/MatrixFunctions/arm_mat_add_f32.c **** 
  93:Drivers/CMSIS/DSP/Source/MatrixFunctions/arm_mat_add_f32.c ****     /* Total number of samples in the input matrix */
  94:Drivers/CMSIS/DSP/Source/MatrixFunctions/arm_mat_add_f32.c ****     numSamples = (uint32_t) pSrcA->numRows * pSrcA->numCols;
  55              		.loc 1 94 5 view .LVU12
  56              		.loc 1 94 34 is_stmt 0 view .LVU13
  57 0008 B0F800C0 		ldrh	ip, [r0]
  58              		.loc 1 94 51 view .LVU14
  59 000c 4088     		ldrh	r0, [r0, #2]
  60              	.LVL4:
  61              		.loc 1 94 16 view .LVU15
  62 000e 00FB0CF0 		mul	r0, r0, ip
  63              	.LVL5:
  95:Drivers/CMSIS/DSP/Source/MatrixFunctions/arm_mat_add_f32.c **** 
  96:Drivers/CMSIS/DSP/Source/MatrixFunctions/arm_mat_add_f32.c **** #if defined (ARM_MATH_DSP)
  97:Drivers/CMSIS/DSP/Source/MatrixFunctions/arm_mat_add_f32.c **** 
  98:Drivers/CMSIS/DSP/Source/MatrixFunctions/arm_mat_add_f32.c ****     /* Loop unrolling */
  99:Drivers/CMSIS/DSP/Source/MatrixFunctions/arm_mat_add_f32.c ****     blkCnt = numSamples >> 2U;
  64              		.loc 1 99 5 is_stmt 1 view .LVU16
  65              		.loc 1 99 12 is_stmt 0 view .LVU17
  66 0012 8408     		lsrs	r4, r0, #2
  67              	.LVL6:
 100:Drivers/CMSIS/DSP/Source/MatrixFunctions/arm_mat_add_f32.c **** 
 101:Drivers/CMSIS/DSP/Source/MatrixFunctions/arm_mat_add_f32.c ****     /* First part of the processing with loop unrolling.  Compute 4 outputs at a time.
 102:Drivers/CMSIS/DSP/Source/MatrixFunctions/arm_mat_add_f32.c ****      ** a second loop below computes the remaining 1 to 3 samples. */
 103:Drivers/CMSIS/DSP/Source/MatrixFunctions/arm_mat_add_f32.c ****     while (blkCnt > 0U)
  68              		.loc 1 103 5 is_stmt 1 view .LVU18
  69              		.loc 1 103 11 is_stmt 0 view .LVU19
ARM GAS  /tmp/cc7HS69b.s 			page 4


  70 0014 23E0     		b	.L2
  71              	.L3:
 104:Drivers/CMSIS/DSP/Source/MatrixFunctions/arm_mat_add_f32.c ****     {
 105:Drivers/CMSIS/DSP/Source/MatrixFunctions/arm_mat_add_f32.c ****       /* C(m,n) = A(m,n) + B(m,n) */
 106:Drivers/CMSIS/DSP/Source/MatrixFunctions/arm_mat_add_f32.c ****       /* Add and then store the results in the destination buffer. */
 107:Drivers/CMSIS/DSP/Source/MatrixFunctions/arm_mat_add_f32.c ****       /* Read values from source A */
 108:Drivers/CMSIS/DSP/Source/MatrixFunctions/arm_mat_add_f32.c ****       inA1 = pIn1[0];
  72              		.loc 1 108 7 is_stmt 1 view .LVU20
  73              		.loc 1 108 12 is_stmt 0 view .LVU21
  74 0016 D3ED006A 		vldr.32	s13, [r3]
  75              	.LVL7:
 109:Drivers/CMSIS/DSP/Source/MatrixFunctions/arm_mat_add_f32.c **** 
 110:Drivers/CMSIS/DSP/Source/MatrixFunctions/arm_mat_add_f32.c ****       /* Read values from source B */
 111:Drivers/CMSIS/DSP/Source/MatrixFunctions/arm_mat_add_f32.c ****       inB1 = pIn2[0];
  76              		.loc 1 111 7 is_stmt 1 view .LVU22
  77              		.loc 1 111 12 is_stmt 0 view .LVU23
  78 001a 91ED007A 		vldr.32	s14, [r1]
  79              	.LVL8:
 112:Drivers/CMSIS/DSP/Source/MatrixFunctions/arm_mat_add_f32.c **** 
 113:Drivers/CMSIS/DSP/Source/MatrixFunctions/arm_mat_add_f32.c ****       /* Read values from source A */
 114:Drivers/CMSIS/DSP/Source/MatrixFunctions/arm_mat_add_f32.c ****       inA2 = pIn1[1];
  80              		.loc 1 114 7 is_stmt 1 view .LVU24
  81              		.loc 1 114 12 is_stmt 0 view .LVU25
  82 001e D3ED017A 		vldr.32	s15, [r3, #4]
  83              	.LVL9:
 115:Drivers/CMSIS/DSP/Source/MatrixFunctions/arm_mat_add_f32.c **** 
 116:Drivers/CMSIS/DSP/Source/MatrixFunctions/arm_mat_add_f32.c ****       /* out = sourceA + sourceB */
 117:Drivers/CMSIS/DSP/Source/MatrixFunctions/arm_mat_add_f32.c ****       out1 = inA1 + inB1;
  84              		.loc 1 117 7 is_stmt 1 view .LVU26
  85              		.loc 1 117 12 is_stmt 0 view .LVU27
  86 0022 76EE876A 		vadd.f32	s13, s13, s14
  87              	.LVL10:
 118:Drivers/CMSIS/DSP/Source/MatrixFunctions/arm_mat_add_f32.c **** 
 119:Drivers/CMSIS/DSP/Source/MatrixFunctions/arm_mat_add_f32.c ****       /* Read values from source B */
 120:Drivers/CMSIS/DSP/Source/MatrixFunctions/arm_mat_add_f32.c ****       inB2 = pIn2[1];
  88              		.loc 1 120 7 is_stmt 1 view .LVU28
  89              		.loc 1 120 12 is_stmt 0 view .LVU29
  90 0026 91ED016A 		vldr.32	s12, [r1, #4]
  91              	.LVL11:
 121:Drivers/CMSIS/DSP/Source/MatrixFunctions/arm_mat_add_f32.c **** 
 122:Drivers/CMSIS/DSP/Source/MatrixFunctions/arm_mat_add_f32.c ****       /* Read values from source A */
 123:Drivers/CMSIS/DSP/Source/MatrixFunctions/arm_mat_add_f32.c ****       inA1 = pIn1[2];
  92              		.loc 1 123 7 is_stmt 1 view .LVU30
  93              		.loc 1 123 12 is_stmt 0 view .LVU31
  94 002a 93ED027A 		vldr.32	s14, [r3, #8]
  95              	.LVL12:
 124:Drivers/CMSIS/DSP/Source/MatrixFunctions/arm_mat_add_f32.c **** 
 125:Drivers/CMSIS/DSP/Source/MatrixFunctions/arm_mat_add_f32.c ****       /* out = sourceA + sourceB */
 126:Drivers/CMSIS/DSP/Source/MatrixFunctions/arm_mat_add_f32.c ****       out2 = inA2 + inB2;
  96              		.loc 1 126 7 is_stmt 1 view .LVU32
  97              		.loc 1 126 12 is_stmt 0 view .LVU33
  98 002e 77EE867A 		vadd.f32	s15, s15, s12
  99              	.LVL13:
 127:Drivers/CMSIS/DSP/Source/MatrixFunctions/arm_mat_add_f32.c **** 
 128:Drivers/CMSIS/DSP/Source/MatrixFunctions/arm_mat_add_f32.c ****       /* Read values from source B */
 129:Drivers/CMSIS/DSP/Source/MatrixFunctions/arm_mat_add_f32.c ****       inB1 = pIn2[2];
 100              		.loc 1 129 7 is_stmt 1 view .LVU34
ARM GAS  /tmp/cc7HS69b.s 			page 5


 101              		.loc 1 129 12 is_stmt 0 view .LVU35
 102 0032 91ED026A 		vldr.32	s12, [r1, #8]
 103              	.LVL14:
 130:Drivers/CMSIS/DSP/Source/MatrixFunctions/arm_mat_add_f32.c **** 
 131:Drivers/CMSIS/DSP/Source/MatrixFunctions/arm_mat_add_f32.c ****       /* Store result in destination */
 132:Drivers/CMSIS/DSP/Source/MatrixFunctions/arm_mat_add_f32.c ****       pOut[0] = out1;
 104              		.loc 1 132 7 is_stmt 1 view .LVU36
 105              		.loc 1 132 15 is_stmt 0 view .LVU37
 106 0036 C2ED006A 		vstr.32	s13, [r2]
 107              	.LVL15:
 133:Drivers/CMSIS/DSP/Source/MatrixFunctions/arm_mat_add_f32.c ****       pOut[1] = out2;
 108              		.loc 1 133 7 is_stmt 1 view .LVU38
 109              		.loc 1 133 15 is_stmt 0 view .LVU39
 110 003a C2ED017A 		vstr.32	s15, [r2, #4]
 134:Drivers/CMSIS/DSP/Source/MatrixFunctions/arm_mat_add_f32.c **** 
 135:Drivers/CMSIS/DSP/Source/MatrixFunctions/arm_mat_add_f32.c ****       /* Read values from source A */
 136:Drivers/CMSIS/DSP/Source/MatrixFunctions/arm_mat_add_f32.c ****       inA2 = pIn1[3];
 111              		.loc 1 136 7 is_stmt 1 view .LVU40
 112              		.loc 1 136 12 is_stmt 0 view .LVU41
 113 003e D3ED037A 		vldr.32	s15, [r3, #12]
 114              	.LVL16:
 137:Drivers/CMSIS/DSP/Source/MatrixFunctions/arm_mat_add_f32.c **** 
 138:Drivers/CMSIS/DSP/Source/MatrixFunctions/arm_mat_add_f32.c ****       /* Read values from source B */
 139:Drivers/CMSIS/DSP/Source/MatrixFunctions/arm_mat_add_f32.c ****       inB2 = pIn2[3];
 115              		.loc 1 139 7 is_stmt 1 view .LVU42
 116              		.loc 1 139 12 is_stmt 0 view .LVU43
 117 0042 D1ED036A 		vldr.32	s13, [r1, #12]
 118              	.LVL17:
 140:Drivers/CMSIS/DSP/Source/MatrixFunctions/arm_mat_add_f32.c **** 
 141:Drivers/CMSIS/DSP/Source/MatrixFunctions/arm_mat_add_f32.c ****       /* out = sourceA + sourceB */
 142:Drivers/CMSIS/DSP/Source/MatrixFunctions/arm_mat_add_f32.c ****       out1 = inA1 + inB1;
 119              		.loc 1 142 7 is_stmt 1 view .LVU44
 120              		.loc 1 142 12 is_stmt 0 view .LVU45
 121 0046 37EE067A 		vadd.f32	s14, s14, s12
 122              	.LVL18:
 143:Drivers/CMSIS/DSP/Source/MatrixFunctions/arm_mat_add_f32.c **** 
 144:Drivers/CMSIS/DSP/Source/MatrixFunctions/arm_mat_add_f32.c ****       /* out = sourceA + sourceB */
 145:Drivers/CMSIS/DSP/Source/MatrixFunctions/arm_mat_add_f32.c ****       out2 = inA2 + inB2;
 123              		.loc 1 145 7 is_stmt 1 view .LVU46
 124              		.loc 1 145 12 is_stmt 0 view .LVU47
 125 004a 77EEA67A 		vadd.f32	s15, s15, s13
 126              	.LVL19:
 146:Drivers/CMSIS/DSP/Source/MatrixFunctions/arm_mat_add_f32.c **** 
 147:Drivers/CMSIS/DSP/Source/MatrixFunctions/arm_mat_add_f32.c ****       /* Store result in destination */
 148:Drivers/CMSIS/DSP/Source/MatrixFunctions/arm_mat_add_f32.c ****       pOut[2] = out1;
 127              		.loc 1 148 7 is_stmt 1 view .LVU48
 128              		.loc 1 148 15 is_stmt 0 view .LVU49
 129 004e 82ED027A 		vstr.32	s14, [r2, #8]
 130              	.LVL20:
 149:Drivers/CMSIS/DSP/Source/MatrixFunctions/arm_mat_add_f32.c **** 
 150:Drivers/CMSIS/DSP/Source/MatrixFunctions/arm_mat_add_f32.c ****       /* Store result in destination */
 151:Drivers/CMSIS/DSP/Source/MatrixFunctions/arm_mat_add_f32.c ****       pOut[3] = out2;
 131              		.loc 1 151 7 is_stmt 1 view .LVU50
 132              		.loc 1 151 15 is_stmt 0 view .LVU51
 133 0052 C2ED037A 		vstr.32	s15, [r2, #12]
 152:Drivers/CMSIS/DSP/Source/MatrixFunctions/arm_mat_add_f32.c **** 
 153:Drivers/CMSIS/DSP/Source/MatrixFunctions/arm_mat_add_f32.c **** 
ARM GAS  /tmp/cc7HS69b.s 			page 6


 154:Drivers/CMSIS/DSP/Source/MatrixFunctions/arm_mat_add_f32.c ****       /* update pointers to process next sampels */
 155:Drivers/CMSIS/DSP/Source/MatrixFunctions/arm_mat_add_f32.c ****       pIn1 += 4U;
 134              		.loc 1 155 7 is_stmt 1 view .LVU52
 135              		.loc 1 155 12 is_stmt 0 view .LVU53
 136 0056 1033     		adds	r3, r3, #16
 137              	.LVL21:
 156:Drivers/CMSIS/DSP/Source/MatrixFunctions/arm_mat_add_f32.c ****       pIn2 += 4U;
 138              		.loc 1 156 7 is_stmt 1 view .LVU54
 139              		.loc 1 156 12 is_stmt 0 view .LVU55
 140 0058 1031     		adds	r1, r1, #16
 141              	.LVL22:
 157:Drivers/CMSIS/DSP/Source/MatrixFunctions/arm_mat_add_f32.c ****       pOut += 4U;
 142              		.loc 1 157 7 is_stmt 1 view .LVU56
 143              		.loc 1 157 12 is_stmt 0 view .LVU57
 144 005a 1032     		adds	r2, r2, #16
 145              	.LVL23:
 158:Drivers/CMSIS/DSP/Source/MatrixFunctions/arm_mat_add_f32.c ****       /* Decrement the loop counter */
 159:Drivers/CMSIS/DSP/Source/MatrixFunctions/arm_mat_add_f32.c ****       blkCnt--;
 146              		.loc 1 159 7 is_stmt 1 view .LVU58
 147              		.loc 1 159 13 is_stmt 0 view .LVU59
 148 005c 013C     		subs	r4, r4, #1
 149              	.LVL24:
 150              	.L2:
 103:Drivers/CMSIS/DSP/Source/MatrixFunctions/arm_mat_add_f32.c ****     {
 151              		.loc 1 103 19 is_stmt 1 view .LVU60
 152 005e 002C     		cmp	r4, #0
 153 0060 D9D1     		bne	.L3
 160:Drivers/CMSIS/DSP/Source/MatrixFunctions/arm_mat_add_f32.c ****     }
 161:Drivers/CMSIS/DSP/Source/MatrixFunctions/arm_mat_add_f32.c **** 
 162:Drivers/CMSIS/DSP/Source/MatrixFunctions/arm_mat_add_f32.c ****     /* If the numSamples is not a multiple of 4, compute any remaining output samples here.
 163:Drivers/CMSIS/DSP/Source/MatrixFunctions/arm_mat_add_f32.c ****      ** No loop unrolling is used. */
 164:Drivers/CMSIS/DSP/Source/MatrixFunctions/arm_mat_add_f32.c ****     blkCnt = numSamples % 0x4U;
 154              		.loc 1 164 5 view .LVU61
 155              		.loc 1 164 12 is_stmt 0 view .LVU62
 156 0062 00F00300 		and	r0, r0, #3
 157              	.LVL25:
 165:Drivers/CMSIS/DSP/Source/MatrixFunctions/arm_mat_add_f32.c **** 
 166:Drivers/CMSIS/DSP/Source/MatrixFunctions/arm_mat_add_f32.c **** #else
 167:Drivers/CMSIS/DSP/Source/MatrixFunctions/arm_mat_add_f32.c **** 
 168:Drivers/CMSIS/DSP/Source/MatrixFunctions/arm_mat_add_f32.c ****     /* Run the below code for Cortex-M0 */
 169:Drivers/CMSIS/DSP/Source/MatrixFunctions/arm_mat_add_f32.c **** 
 170:Drivers/CMSIS/DSP/Source/MatrixFunctions/arm_mat_add_f32.c ****     /* Initialize blkCnt with number of samples */
 171:Drivers/CMSIS/DSP/Source/MatrixFunctions/arm_mat_add_f32.c ****     blkCnt = numSamples;
 172:Drivers/CMSIS/DSP/Source/MatrixFunctions/arm_mat_add_f32.c **** 
 173:Drivers/CMSIS/DSP/Source/MatrixFunctions/arm_mat_add_f32.c **** #endif /* #if defined (ARM_MATH_DSP) */
 174:Drivers/CMSIS/DSP/Source/MatrixFunctions/arm_mat_add_f32.c **** 
 175:Drivers/CMSIS/DSP/Source/MatrixFunctions/arm_mat_add_f32.c ****     while (blkCnt > 0U)
 158              		.loc 1 175 5 is_stmt 1 view .LVU63
 159              		.loc 1 175 11 is_stmt 0 view .LVU64
 160 0066 08E0     		b	.L4
 161              	.L5:
 176:Drivers/CMSIS/DSP/Source/MatrixFunctions/arm_mat_add_f32.c ****     {
 177:Drivers/CMSIS/DSP/Source/MatrixFunctions/arm_mat_add_f32.c ****       /* C(m,n) = A(m,n) + B(m,n) */
 178:Drivers/CMSIS/DSP/Source/MatrixFunctions/arm_mat_add_f32.c ****       /* Add and then store the results in the destination buffer. */
 179:Drivers/CMSIS/DSP/Source/MatrixFunctions/arm_mat_add_f32.c ****       *pOut++ = (*pIn1++) + (*pIn2++);
 162              		.loc 1 179 7 is_stmt 1 view .LVU65
 163              	.LVL26:
ARM GAS  /tmp/cc7HS69b.s 			page 7


 164              		.loc 1 179 18 is_stmt 0 view .LVU66
 165 0068 F3EC017A 		vldmia.32	r3!, {s15}
 166              	.LVL27:
 167              		.loc 1 179 30 view .LVU67
 168 006c B1EC017A 		vldmia.32	r1!, {s14}
 169              	.LVL28:
 170              		.loc 1 179 27 view .LVU68
 171 0070 77EE877A 		vadd.f32	s15, s15, s14
 172              		.loc 1 179 15 view .LVU69
 173 0074 E2EC017A 		vstmia.32	r2!, {s15}
 174              	.LVL29:
 180:Drivers/CMSIS/DSP/Source/MatrixFunctions/arm_mat_add_f32.c **** 
 181:Drivers/CMSIS/DSP/Source/MatrixFunctions/arm_mat_add_f32.c ****       /* Decrement the loop counter */
 182:Drivers/CMSIS/DSP/Source/MatrixFunctions/arm_mat_add_f32.c ****       blkCnt--;
 175              		.loc 1 182 7 is_stmt 1 view .LVU70
 176              		.loc 1 182 13 is_stmt 0 view .LVU71
 177 0078 0138     		subs	r0, r0, #1
 178              	.LVL30:
 179              	.L4:
 175:Drivers/CMSIS/DSP/Source/MatrixFunctions/arm_mat_add_f32.c ****     {
 180              		.loc 1 175 19 is_stmt 1 view .LVU72
 181 007a 0028     		cmp	r0, #0
 182 007c F4D1     		bne	.L5
 183:Drivers/CMSIS/DSP/Source/MatrixFunctions/arm_mat_add_f32.c ****     }
 184:Drivers/CMSIS/DSP/Source/MatrixFunctions/arm_mat_add_f32.c **** 
 185:Drivers/CMSIS/DSP/Source/MatrixFunctions/arm_mat_add_f32.c ****     /* set status as ARM_MATH_SUCCESS */
 186:Drivers/CMSIS/DSP/Source/MatrixFunctions/arm_mat_add_f32.c ****     status = ARM_MATH_SUCCESS;
 183              		.loc 1 186 5 view .LVU73
 184              	.LVL31:
 187:Drivers/CMSIS/DSP/Source/MatrixFunctions/arm_mat_add_f32.c **** 
 188:Drivers/CMSIS/DSP/Source/MatrixFunctions/arm_mat_add_f32.c ****   }
 189:Drivers/CMSIS/DSP/Source/MatrixFunctions/arm_mat_add_f32.c **** 
 190:Drivers/CMSIS/DSP/Source/MatrixFunctions/arm_mat_add_f32.c ****   /* Return to application */
 191:Drivers/CMSIS/DSP/Source/MatrixFunctions/arm_mat_add_f32.c ****   return (status);
 185              		.loc 1 191 3 view .LVU74
 192:Drivers/CMSIS/DSP/Source/MatrixFunctions/arm_mat_add_f32.c **** }
 186              		.loc 1 192 1 is_stmt 0 view .LVU75
 187 007e 5DF8044B 		ldr	r4, [sp], #4
 188              		.cfi_restore 4
 189              		.cfi_def_cfa_offset 0
 190 0082 7047     		bx	lr
 191              		.cfi_endproc
 192              	.LFE135:
 194              		.text
 195              	.Letext0:
 196              		.file 2 "/usr/arm-none-eabi/include/machine/_default_types.h"
 197              		.file 3 "/usr/arm-none-eabi/include/sys/_stdint.h"
 198              		.file 4 "Drivers/CMSIS/DSP/Include/arm_math.h"
ARM GAS  /tmp/cc7HS69b.s 			page 8


DEFINED SYMBOLS
                            *ABS*:00000000 arm_mat_add_f32.c
     /tmp/cc7HS69b.s:21     .text.arm_mat_add_f32:00000000 $t
     /tmp/cc7HS69b.s:27     .text.arm_mat_add_f32:00000000 arm_mat_add_f32

NO UNDEFINED SYMBOLS
