ARM GAS  /tmp/ccPG2jJw.s 			page 1


   1              		.cpu cortex-m4
   2              		.arch armv7e-m
   3              		.fpu fpv4-sp-d16
   4              		.eabi_attribute 27, 1
   5              		.eabi_attribute 28, 1
   6              		.eabi_attribute 20, 1
   7              		.eabi_attribute 21, 1
   8              		.eabi_attribute 23, 3
   9              		.eabi_attribute 24, 1
  10              		.eabi_attribute 25, 1
  11              		.eabi_attribute 26, 1
  12              		.eabi_attribute 30, 1
  13              		.eabi_attribute 34, 1
  14              		.eabi_attribute 18, 4
  15              		.file	"arm_mat_mult_f32.c"
  16              		.text
  17              	.Ltext0:
  18              		.cfi_sections	.debug_frame
  19              		.file 1 "Drivers/CMSIS/DSP/Source/MatrixFunctions/arm_mat_mult_f32.c"
  20              		.section	.text.arm_mat_mult_f32,"ax",%progbits
  21              		.align	1
  22              		.global	arm_mat_mult_f32
  23              		.syntax unified
  24              		.thumb
  25              		.thumb_func
  27              	arm_mat_mult_f32:
  28              	.LVL0:
  29              	.LFB135:
   1:Drivers/CMSIS/DSP/Source/MatrixFunctions/arm_mat_mult_f32.c **** /* ----------------------------------------------------------------------
   2:Drivers/CMSIS/DSP/Source/MatrixFunctions/arm_mat_mult_f32.c ****  * Project:      CMSIS DSP Library
   3:Drivers/CMSIS/DSP/Source/MatrixFunctions/arm_mat_mult_f32.c ****  * Title:        arm_mat_mult_f32.c
   4:Drivers/CMSIS/DSP/Source/MatrixFunctions/arm_mat_mult_f32.c ****  * Description:  Floating-point matrix multiplication
   5:Drivers/CMSIS/DSP/Source/MatrixFunctions/arm_mat_mult_f32.c ****  *
   6:Drivers/CMSIS/DSP/Source/MatrixFunctions/arm_mat_mult_f32.c ****  * $Date:        27. January 2017
   7:Drivers/CMSIS/DSP/Source/MatrixFunctions/arm_mat_mult_f32.c ****  * $Revision:    V.1.5.1
   8:Drivers/CMSIS/DSP/Source/MatrixFunctions/arm_mat_mult_f32.c ****  *
   9:Drivers/CMSIS/DSP/Source/MatrixFunctions/arm_mat_mult_f32.c ****  * Target Processor: Cortex-M cores
  10:Drivers/CMSIS/DSP/Source/MatrixFunctions/arm_mat_mult_f32.c ****  * -------------------------------------------------------------------- */
  11:Drivers/CMSIS/DSP/Source/MatrixFunctions/arm_mat_mult_f32.c **** /*
  12:Drivers/CMSIS/DSP/Source/MatrixFunctions/arm_mat_mult_f32.c ****  * Copyright (C) 2010-2017 ARM Limited or its affiliates. All rights reserved.
  13:Drivers/CMSIS/DSP/Source/MatrixFunctions/arm_mat_mult_f32.c ****  *
  14:Drivers/CMSIS/DSP/Source/MatrixFunctions/arm_mat_mult_f32.c ****  * SPDX-License-Identifier: Apache-2.0
  15:Drivers/CMSIS/DSP/Source/MatrixFunctions/arm_mat_mult_f32.c ****  *
  16:Drivers/CMSIS/DSP/Source/MatrixFunctions/arm_mat_mult_f32.c ****  * Licensed under the Apache License, Version 2.0 (the License); you may
  17:Drivers/CMSIS/DSP/Source/MatrixFunctions/arm_mat_mult_f32.c ****  * not use this file except in compliance with the License.
  18:Drivers/CMSIS/DSP/Source/MatrixFunctions/arm_mat_mult_f32.c ****  * You may obtain a copy of the License at
  19:Drivers/CMSIS/DSP/Source/MatrixFunctions/arm_mat_mult_f32.c ****  *
  20:Drivers/CMSIS/DSP/Source/MatrixFunctions/arm_mat_mult_f32.c ****  * www.apache.org/licenses/LICENSE-2.0
  21:Drivers/CMSIS/DSP/Source/MatrixFunctions/arm_mat_mult_f32.c ****  *
  22:Drivers/CMSIS/DSP/Source/MatrixFunctions/arm_mat_mult_f32.c ****  * Unless required by applicable law or agreed to in writing, software
  23:Drivers/CMSIS/DSP/Source/MatrixFunctions/arm_mat_mult_f32.c ****  * distributed under the License is distributed on an AS IS BASIS, WITHOUT
  24:Drivers/CMSIS/DSP/Source/MatrixFunctions/arm_mat_mult_f32.c ****  * WARRANTIES OR CONDITIONS OF ANY KIND, either express or implied.
  25:Drivers/CMSIS/DSP/Source/MatrixFunctions/arm_mat_mult_f32.c ****  * See the License for the specific language governing permissions and
  26:Drivers/CMSIS/DSP/Source/MatrixFunctions/arm_mat_mult_f32.c ****  * limitations under the License.
  27:Drivers/CMSIS/DSP/Source/MatrixFunctions/arm_mat_mult_f32.c ****  */
  28:Drivers/CMSIS/DSP/Source/MatrixFunctions/arm_mat_mult_f32.c **** 
  29:Drivers/CMSIS/DSP/Source/MatrixFunctions/arm_mat_mult_f32.c **** #include "arm_math.h"
ARM GAS  /tmp/ccPG2jJw.s 			page 2


  30:Drivers/CMSIS/DSP/Source/MatrixFunctions/arm_mat_mult_f32.c **** 
  31:Drivers/CMSIS/DSP/Source/MatrixFunctions/arm_mat_mult_f32.c **** /**
  32:Drivers/CMSIS/DSP/Source/MatrixFunctions/arm_mat_mult_f32.c ****  * @ingroup groupMatrix
  33:Drivers/CMSIS/DSP/Source/MatrixFunctions/arm_mat_mult_f32.c ****  */
  34:Drivers/CMSIS/DSP/Source/MatrixFunctions/arm_mat_mult_f32.c **** 
  35:Drivers/CMSIS/DSP/Source/MatrixFunctions/arm_mat_mult_f32.c **** /**
  36:Drivers/CMSIS/DSP/Source/MatrixFunctions/arm_mat_mult_f32.c ****  * @defgroup MatrixMult Matrix Multiplication
  37:Drivers/CMSIS/DSP/Source/MatrixFunctions/arm_mat_mult_f32.c ****  *
  38:Drivers/CMSIS/DSP/Source/MatrixFunctions/arm_mat_mult_f32.c ****  * Multiplies two matrices.
  39:Drivers/CMSIS/DSP/Source/MatrixFunctions/arm_mat_mult_f32.c ****  *
  40:Drivers/CMSIS/DSP/Source/MatrixFunctions/arm_mat_mult_f32.c ****  * \image html MatrixMultiplication.gif "Multiplication of two 3 x 3 matrices"
  41:Drivers/CMSIS/DSP/Source/MatrixFunctions/arm_mat_mult_f32.c **** 
  42:Drivers/CMSIS/DSP/Source/MatrixFunctions/arm_mat_mult_f32.c ****  * Matrix multiplication is only defined if the number of columns of the
  43:Drivers/CMSIS/DSP/Source/MatrixFunctions/arm_mat_mult_f32.c ****  * first matrix equals the number of rows of the second matrix.
  44:Drivers/CMSIS/DSP/Source/MatrixFunctions/arm_mat_mult_f32.c ****  * Multiplying an <code>M x N</code> matrix with an <code>N x P</code> matrix results
  45:Drivers/CMSIS/DSP/Source/MatrixFunctions/arm_mat_mult_f32.c ****  * in an <code>M x P</code> matrix.
  46:Drivers/CMSIS/DSP/Source/MatrixFunctions/arm_mat_mult_f32.c ****  * When matrix size checking is enabled, the functions check: (1) that the inner dimensions of
  47:Drivers/CMSIS/DSP/Source/MatrixFunctions/arm_mat_mult_f32.c ****  * <code>pSrcA</code> and <code>pSrcB</code> are equal; and (2) that the size of the output
  48:Drivers/CMSIS/DSP/Source/MatrixFunctions/arm_mat_mult_f32.c ****  * matrix equals the outer dimensions of <code>pSrcA</code> and <code>pSrcB</code>.
  49:Drivers/CMSIS/DSP/Source/MatrixFunctions/arm_mat_mult_f32.c ****  */
  50:Drivers/CMSIS/DSP/Source/MatrixFunctions/arm_mat_mult_f32.c **** 
  51:Drivers/CMSIS/DSP/Source/MatrixFunctions/arm_mat_mult_f32.c **** 
  52:Drivers/CMSIS/DSP/Source/MatrixFunctions/arm_mat_mult_f32.c **** /**
  53:Drivers/CMSIS/DSP/Source/MatrixFunctions/arm_mat_mult_f32.c ****  * @addtogroup MatrixMult
  54:Drivers/CMSIS/DSP/Source/MatrixFunctions/arm_mat_mult_f32.c ****  * @{
  55:Drivers/CMSIS/DSP/Source/MatrixFunctions/arm_mat_mult_f32.c ****  */
  56:Drivers/CMSIS/DSP/Source/MatrixFunctions/arm_mat_mult_f32.c **** 
  57:Drivers/CMSIS/DSP/Source/MatrixFunctions/arm_mat_mult_f32.c **** /**
  58:Drivers/CMSIS/DSP/Source/MatrixFunctions/arm_mat_mult_f32.c ****  * @brief Floating-point matrix multiplication.
  59:Drivers/CMSIS/DSP/Source/MatrixFunctions/arm_mat_mult_f32.c ****  * @param[in]       *pSrcA points to the first input matrix structure
  60:Drivers/CMSIS/DSP/Source/MatrixFunctions/arm_mat_mult_f32.c ****  * @param[in]       *pSrcB points to the second input matrix structure
  61:Drivers/CMSIS/DSP/Source/MatrixFunctions/arm_mat_mult_f32.c ****  * @param[out]      *pDst points to output matrix structure
  62:Drivers/CMSIS/DSP/Source/MatrixFunctions/arm_mat_mult_f32.c ****  * @return     		The function returns either
  63:Drivers/CMSIS/DSP/Source/MatrixFunctions/arm_mat_mult_f32.c ****  * <code>ARM_MATH_SIZE_MISMATCH</code> or <code>ARM_MATH_SUCCESS</code> based on the outcome of siz
  64:Drivers/CMSIS/DSP/Source/MatrixFunctions/arm_mat_mult_f32.c ****  */
  65:Drivers/CMSIS/DSP/Source/MatrixFunctions/arm_mat_mult_f32.c **** 
  66:Drivers/CMSIS/DSP/Source/MatrixFunctions/arm_mat_mult_f32.c **** arm_status arm_mat_mult_f32(
  67:Drivers/CMSIS/DSP/Source/MatrixFunctions/arm_mat_mult_f32.c ****   const arm_matrix_instance_f32 * pSrcA,
  68:Drivers/CMSIS/DSP/Source/MatrixFunctions/arm_mat_mult_f32.c ****   const arm_matrix_instance_f32 * pSrcB,
  69:Drivers/CMSIS/DSP/Source/MatrixFunctions/arm_mat_mult_f32.c ****   arm_matrix_instance_f32 * pDst)
  70:Drivers/CMSIS/DSP/Source/MatrixFunctions/arm_mat_mult_f32.c **** {
  30              		.loc 1 70 1 view -0
  31              		.cfi_startproc
  32              		@ args = 0, pretend = 0, frame = 0
  33              		@ frame_needed = 0, uses_anonymous_args = 0
  34              		.loc 1 70 1 is_stmt 0 view .LVU1
  35 0000 2DE9F047 		push	{r4, r5, r6, r7, r8, r9, r10, lr}
  36              		.cfi_def_cfa_offset 32
  37              		.cfi_offset 4, -32
  38              		.cfi_offset 5, -28
  39              		.cfi_offset 6, -24
  40              		.cfi_offset 7, -20
  41              		.cfi_offset 8, -16
  42              		.cfi_offset 9, -12
  43              		.cfi_offset 10, -8
  44              		.cfi_offset 14, -4
  45 0004 0346     		mov	r3, r0
ARM GAS  /tmp/ccPG2jJw.s 			page 3


  46 0006 0E46     		mov	r6, r1
  71:Drivers/CMSIS/DSP/Source/MatrixFunctions/arm_mat_mult_f32.c ****   float32_t *pIn1 = pSrcA->pData;                /* input data matrix pointer A */
  47              		.loc 1 71 3 is_stmt 1 view .LVU2
  48              	.LVL1:
  72:Drivers/CMSIS/DSP/Source/MatrixFunctions/arm_mat_mult_f32.c ****   float32_t *pIn2 = pSrcB->pData;                /* input data matrix pointer B */
  49              		.loc 1 72 3 view .LVU3
  73:Drivers/CMSIS/DSP/Source/MatrixFunctions/arm_mat_mult_f32.c ****   float32_t *pInA = pSrcA->pData;                /* input data matrix pointer A  */
  50              		.loc 1 73 3 view .LVU4
  51              		.loc 1 73 14 is_stmt 0 view .LVU5
  52 0008 4568     		ldr	r5, [r0, #4]
  53              	.LVL2:
  74:Drivers/CMSIS/DSP/Source/MatrixFunctions/arm_mat_mult_f32.c ****   float32_t *pOut = pDst->pData;                 /* output data matrix pointer */
  54              		.loc 1 74 3 is_stmt 1 view .LVU6
  55              		.loc 1 74 14 is_stmt 0 view .LVU7
  56 000a D2F80490 		ldr	r9, [r2, #4]
  57              	.LVL3:
  75:Drivers/CMSIS/DSP/Source/MatrixFunctions/arm_mat_mult_f32.c ****   float32_t *px;                                 /* Temporary output data matrix pointer */
  58              		.loc 1 75 3 is_stmt 1 view .LVU8
  76:Drivers/CMSIS/DSP/Source/MatrixFunctions/arm_mat_mult_f32.c ****   float32_t sum;                                 /* Accumulator */
  59              		.loc 1 76 3 view .LVU9
  77:Drivers/CMSIS/DSP/Source/MatrixFunctions/arm_mat_mult_f32.c ****   uint16_t numRowsA = pSrcA->numRows;            /* number of rows of input matrix A */
  60              		.loc 1 77 3 view .LVU10
  61              		.loc 1 77 12 is_stmt 0 view .LVU11
  62 000e B0F80080 		ldrh	r8, [r0]
  63              	.LVL4:
  78:Drivers/CMSIS/DSP/Source/MatrixFunctions/arm_mat_mult_f32.c ****   uint16_t numColsB = pSrcB->numCols;            /* number of columns of input matrix B */
  64              		.loc 1 78 3 is_stmt 1 view .LVU12
  65              		.loc 1 78 12 is_stmt 0 view .LVU13
  66 0012 4888     		ldrh	r0, [r1, #2]
  67              	.LVL5:
  79:Drivers/CMSIS/DSP/Source/MatrixFunctions/arm_mat_mult_f32.c ****   uint16_t numColsA = pSrcA->numCols;            /* number of columns of input matrix A */
  68              		.loc 1 79 3 is_stmt 1 view .LVU14
  69              		.loc 1 79 12 is_stmt 0 view .LVU15
  70 0014 B3F802E0 		ldrh	lr, [r3, #2]
  71              	.LVL6:
  80:Drivers/CMSIS/DSP/Source/MatrixFunctions/arm_mat_mult_f32.c **** 
  81:Drivers/CMSIS/DSP/Source/MatrixFunctions/arm_mat_mult_f32.c **** #if defined (ARM_MATH_DSP)
  82:Drivers/CMSIS/DSP/Source/MatrixFunctions/arm_mat_mult_f32.c **** 
  83:Drivers/CMSIS/DSP/Source/MatrixFunctions/arm_mat_mult_f32.c ****   /* Run the below code for Cortex-M4 and Cortex-M3 */
  84:Drivers/CMSIS/DSP/Source/MatrixFunctions/arm_mat_mult_f32.c **** 
  85:Drivers/CMSIS/DSP/Source/MatrixFunctions/arm_mat_mult_f32.c ****   float32_t in1, in2, in3, in4;
  72              		.loc 1 85 3 is_stmt 1 view .LVU16
  86:Drivers/CMSIS/DSP/Source/MatrixFunctions/arm_mat_mult_f32.c ****   uint16_t col, i = 0U, j, row = numRowsA, colCnt;      /* loop counters */
  73              		.loc 1 86 3 view .LVU17
  74              		.loc 1 86 17 is_stmt 0 view .LVU18
  75 0018 0027     		movs	r7, #0
  76 001a 5AE0     		b	.L7
  77              	.LVL7:
  78              	.L3:
  87:Drivers/CMSIS/DSP/Source/MatrixFunctions/arm_mat_mult_f32.c ****   arm_status status;                             /* status of matrix multiplication */
  88:Drivers/CMSIS/DSP/Source/MatrixFunctions/arm_mat_mult_f32.c **** 
  89:Drivers/CMSIS/DSP/Source/MatrixFunctions/arm_mat_mult_f32.c **** #ifdef ARM_MATH_MATRIX_CHECK
  90:Drivers/CMSIS/DSP/Source/MatrixFunctions/arm_mat_mult_f32.c **** 
  91:Drivers/CMSIS/DSP/Source/MatrixFunctions/arm_mat_mult_f32.c **** 
  92:Drivers/CMSIS/DSP/Source/MatrixFunctions/arm_mat_mult_f32.c ****   /* Check for matrix mismatch condition */
  93:Drivers/CMSIS/DSP/Source/MatrixFunctions/arm_mat_mult_f32.c ****   if ((pSrcA->numCols != pSrcB->numRows) ||
  94:Drivers/CMSIS/DSP/Source/MatrixFunctions/arm_mat_mult_f32.c ****      (pSrcA->numRows != pDst->numRows) || (pSrcB->numCols != pDst->numCols))
ARM GAS  /tmp/ccPG2jJw.s 			page 4


  95:Drivers/CMSIS/DSP/Source/MatrixFunctions/arm_mat_mult_f32.c ****   {
  96:Drivers/CMSIS/DSP/Source/MatrixFunctions/arm_mat_mult_f32.c **** 
  97:Drivers/CMSIS/DSP/Source/MatrixFunctions/arm_mat_mult_f32.c ****     /* Set status as ARM_MATH_SIZE_MISMATCH */
  98:Drivers/CMSIS/DSP/Source/MatrixFunctions/arm_mat_mult_f32.c ****     status = ARM_MATH_SIZE_MISMATCH;
  99:Drivers/CMSIS/DSP/Source/MatrixFunctions/arm_mat_mult_f32.c ****   }
 100:Drivers/CMSIS/DSP/Source/MatrixFunctions/arm_mat_mult_f32.c ****   else
 101:Drivers/CMSIS/DSP/Source/MatrixFunctions/arm_mat_mult_f32.c **** #endif /*      #ifdef ARM_MATH_MATRIX_CHECK    */
 102:Drivers/CMSIS/DSP/Source/MatrixFunctions/arm_mat_mult_f32.c **** 
 103:Drivers/CMSIS/DSP/Source/MatrixFunctions/arm_mat_mult_f32.c ****   {
 104:Drivers/CMSIS/DSP/Source/MatrixFunctions/arm_mat_mult_f32.c ****     /* The following loop performs the dot-product of each row in pSrcA with each column in pSrcB *
 105:Drivers/CMSIS/DSP/Source/MatrixFunctions/arm_mat_mult_f32.c ****     /* row loop */
 106:Drivers/CMSIS/DSP/Source/MatrixFunctions/arm_mat_mult_f32.c ****     do
 107:Drivers/CMSIS/DSP/Source/MatrixFunctions/arm_mat_mult_f32.c ****     {
 108:Drivers/CMSIS/DSP/Source/MatrixFunctions/arm_mat_mult_f32.c ****       /* Output pointer is set to starting address of the row being processed */
 109:Drivers/CMSIS/DSP/Source/MatrixFunctions/arm_mat_mult_f32.c ****       px = pOut + i;
 110:Drivers/CMSIS/DSP/Source/MatrixFunctions/arm_mat_mult_f32.c **** 
 111:Drivers/CMSIS/DSP/Source/MatrixFunctions/arm_mat_mult_f32.c ****       /* For every row wise process, the column loop counter is to be initiated */
 112:Drivers/CMSIS/DSP/Source/MatrixFunctions/arm_mat_mult_f32.c ****       col = numColsB;
 113:Drivers/CMSIS/DSP/Source/MatrixFunctions/arm_mat_mult_f32.c **** 
 114:Drivers/CMSIS/DSP/Source/MatrixFunctions/arm_mat_mult_f32.c ****       /* For every row wise process, the pIn2 pointer is set
 115:Drivers/CMSIS/DSP/Source/MatrixFunctions/arm_mat_mult_f32.c ****        ** to the starting address of the pSrcB data */
 116:Drivers/CMSIS/DSP/Source/MatrixFunctions/arm_mat_mult_f32.c ****       pIn2 = pSrcB->pData;
 117:Drivers/CMSIS/DSP/Source/MatrixFunctions/arm_mat_mult_f32.c **** 
 118:Drivers/CMSIS/DSP/Source/MatrixFunctions/arm_mat_mult_f32.c ****       j = 0U;
 119:Drivers/CMSIS/DSP/Source/MatrixFunctions/arm_mat_mult_f32.c **** 
 120:Drivers/CMSIS/DSP/Source/MatrixFunctions/arm_mat_mult_f32.c ****       /* column loop */
 121:Drivers/CMSIS/DSP/Source/MatrixFunctions/arm_mat_mult_f32.c ****       do
 122:Drivers/CMSIS/DSP/Source/MatrixFunctions/arm_mat_mult_f32.c ****       {
 123:Drivers/CMSIS/DSP/Source/MatrixFunctions/arm_mat_mult_f32.c ****         /* Set the variable sum, that acts as accumulator, to zero */
 124:Drivers/CMSIS/DSP/Source/MatrixFunctions/arm_mat_mult_f32.c ****         sum = 0.0f;
 125:Drivers/CMSIS/DSP/Source/MatrixFunctions/arm_mat_mult_f32.c **** 
 126:Drivers/CMSIS/DSP/Source/MatrixFunctions/arm_mat_mult_f32.c ****         /* Initiate the pointer pIn1 to point to the starting address of the column being processed
 127:Drivers/CMSIS/DSP/Source/MatrixFunctions/arm_mat_mult_f32.c ****         pIn1 = pInA;
 128:Drivers/CMSIS/DSP/Source/MatrixFunctions/arm_mat_mult_f32.c **** 
 129:Drivers/CMSIS/DSP/Source/MatrixFunctions/arm_mat_mult_f32.c ****         /* Apply loop unrolling and compute 4 MACs simultaneously. */
 130:Drivers/CMSIS/DSP/Source/MatrixFunctions/arm_mat_mult_f32.c ****         colCnt = numColsA >> 2U;
 131:Drivers/CMSIS/DSP/Source/MatrixFunctions/arm_mat_mult_f32.c **** 
 132:Drivers/CMSIS/DSP/Source/MatrixFunctions/arm_mat_mult_f32.c ****         /* matrix multiplication        */
 133:Drivers/CMSIS/DSP/Source/MatrixFunctions/arm_mat_mult_f32.c ****         while (colCnt > 0U)
 134:Drivers/CMSIS/DSP/Source/MatrixFunctions/arm_mat_mult_f32.c ****         {
 135:Drivers/CMSIS/DSP/Source/MatrixFunctions/arm_mat_mult_f32.c ****           /* c(m,n) = a(1,1)*b(1,1) + a(1,2) * b(2,1) + .... + a(m,p)*b(p,n) */
 136:Drivers/CMSIS/DSP/Source/MatrixFunctions/arm_mat_mult_f32.c ****           in3 = *pIn2;
  79              		.loc 1 136 11 is_stmt 1 view .LVU19
  80              		.loc 1 136 15 is_stmt 0 view .LVU20
  81 001c 93ED007A 		vldr.32	s14, [r3]
  82              	.LVL8:
 137:Drivers/CMSIS/DSP/Source/MatrixFunctions/arm_mat_mult_f32.c ****           pIn2 += numColsB;
  83              		.loc 1 137 11 is_stmt 1 view .LVU21
  84              		.loc 1 137 16 is_stmt 0 view .LVU22
  85 0020 03EB8003 		add	r3, r3, r0, lsl #2
  86              	.LVL9:
 138:Drivers/CMSIS/DSP/Source/MatrixFunctions/arm_mat_mult_f32.c ****           in1 = pIn1[0];
  87              		.loc 1 138 11 is_stmt 1 view .LVU23
  88              		.loc 1 138 15 is_stmt 0 view .LVU24
  89 0024 92ED006A 		vldr.32	s12, [r2]
  90              	.LVL10:
 139:Drivers/CMSIS/DSP/Source/MatrixFunctions/arm_mat_mult_f32.c ****           in2 = pIn1[1];
ARM GAS  /tmp/ccPG2jJw.s 			page 5


  91              		.loc 1 139 11 is_stmt 1 view .LVU25
  92              		.loc 1 139 15 is_stmt 0 view .LVU26
  93 0028 D2ED016A 		vldr.32	s13, [r2, #4]
  94              	.LVL11:
 140:Drivers/CMSIS/DSP/Source/MatrixFunctions/arm_mat_mult_f32.c ****           sum += in1 * in3;
  95              		.loc 1 140 11 is_stmt 1 view .LVU27
  96              		.loc 1 140 22 is_stmt 0 view .LVU28
  97 002c 27EE067A 		vmul.f32	s14, s14, s12
  98              	.LVL12:
  99              		.loc 1 140 15 view .LVU29
 100 0030 77EE277A 		vadd.f32	s15, s14, s15
 101              	.LVL13:
 141:Drivers/CMSIS/DSP/Source/MatrixFunctions/arm_mat_mult_f32.c ****           in4 = *pIn2;
 102              		.loc 1 141 11 is_stmt 1 view .LVU30
 103              		.loc 1 141 15 is_stmt 0 view .LVU31
 104 0034 93ED007A 		vldr.32	s14, [r3]
 105              	.LVL14:
 142:Drivers/CMSIS/DSP/Source/MatrixFunctions/arm_mat_mult_f32.c ****           pIn2 += numColsB;
 106              		.loc 1 142 11 is_stmt 1 view .LVU32
 107              		.loc 1 142 16 is_stmt 0 view .LVU33
 108 0038 03EB8003 		add	r3, r3, r0, lsl #2
 109              	.LVL15:
 143:Drivers/CMSIS/DSP/Source/MatrixFunctions/arm_mat_mult_f32.c ****           sum += in2 * in4;
 110              		.loc 1 143 11 is_stmt 1 view .LVU34
 111              		.loc 1 143 22 is_stmt 0 view .LVU35
 112 003c 66EE876A 		vmul.f32	s13, s13, s14
 113              	.LVL16:
 114              		.loc 1 143 15 view .LVU36
 115 0040 76EEA76A 		vadd.f32	s13, s13, s15
 116              	.LVL17:
 144:Drivers/CMSIS/DSP/Source/MatrixFunctions/arm_mat_mult_f32.c **** 
 145:Drivers/CMSIS/DSP/Source/MatrixFunctions/arm_mat_mult_f32.c ****           in3 = *pIn2;
 117              		.loc 1 145 11 is_stmt 1 view .LVU37
 118              		.loc 1 145 15 is_stmt 0 view .LVU38
 119 0044 93ED007A 		vldr.32	s14, [r3]
 120              	.LVL18:
 146:Drivers/CMSIS/DSP/Source/MatrixFunctions/arm_mat_mult_f32.c ****           pIn2 += numColsB;
 121              		.loc 1 146 11 is_stmt 1 view .LVU39
 122              		.loc 1 146 16 is_stmt 0 view .LVU40
 123 0048 03EB8003 		add	r3, r3, r0, lsl #2
 124              	.LVL19:
 147:Drivers/CMSIS/DSP/Source/MatrixFunctions/arm_mat_mult_f32.c ****           in1 = pIn1[2];
 125              		.loc 1 147 11 is_stmt 1 view .LVU41
 126              		.loc 1 147 15 is_stmt 0 view .LVU42
 127 004c 92ED026A 		vldr.32	s12, [r2, #8]
 128              	.LVL20:
 148:Drivers/CMSIS/DSP/Source/MatrixFunctions/arm_mat_mult_f32.c ****           in2 = pIn1[3];
 129              		.loc 1 148 11 is_stmt 1 view .LVU43
 130              		.loc 1 148 15 is_stmt 0 view .LVU44
 131 0050 D2ED037A 		vldr.32	s15, [r2, #12]
 132              	.LVL21:
 149:Drivers/CMSIS/DSP/Source/MatrixFunctions/arm_mat_mult_f32.c ****           sum += in1 * in3;
 133              		.loc 1 149 11 is_stmt 1 view .LVU45
 134              		.loc 1 149 22 is_stmt 0 view .LVU46
 135 0054 27EE067A 		vmul.f32	s14, s14, s12
 136              	.LVL22:
 137              		.loc 1 149 15 view .LVU47
ARM GAS  /tmp/ccPG2jJw.s 			page 6


 138 0058 37EE267A 		vadd.f32	s14, s14, s13
 139              	.LVL23:
 150:Drivers/CMSIS/DSP/Source/MatrixFunctions/arm_mat_mult_f32.c ****           in4 = *pIn2;
 140              		.loc 1 150 11 is_stmt 1 view .LVU48
 141              		.loc 1 150 15 is_stmt 0 view .LVU49
 142 005c D3ED006A 		vldr.32	s13, [r3]
 143              	.LVL24:
 151:Drivers/CMSIS/DSP/Source/MatrixFunctions/arm_mat_mult_f32.c ****           pIn2 += numColsB;
 144              		.loc 1 151 11 is_stmt 1 view .LVU50
 145              		.loc 1 151 16 is_stmt 0 view .LVU51
 146 0060 03EB8003 		add	r3, r3, r0, lsl #2
 147              	.LVL25:
 152:Drivers/CMSIS/DSP/Source/MatrixFunctions/arm_mat_mult_f32.c ****           sum += in2 * in4;
 148              		.loc 1 152 11 is_stmt 1 view .LVU52
 149              		.loc 1 152 22 is_stmt 0 view .LVU53
 150 0064 67EEA67A 		vmul.f32	s15, s15, s13
 151              	.LVL26:
 152              		.loc 1 152 15 view .LVU54
 153 0068 77EE877A 		vadd.f32	s15, s15, s14
 154              	.LVL27:
 153:Drivers/CMSIS/DSP/Source/MatrixFunctions/arm_mat_mult_f32.c ****           pIn1 += 4U;
 155              		.loc 1 153 11 is_stmt 1 view .LVU55
 156              		.loc 1 153 16 is_stmt 0 view .LVU56
 157 006c 1032     		adds	r2, r2, #16
 158              	.LVL28:
 154:Drivers/CMSIS/DSP/Source/MatrixFunctions/arm_mat_mult_f32.c **** 
 155:Drivers/CMSIS/DSP/Source/MatrixFunctions/arm_mat_mult_f32.c ****           /* Decrement the loop count */
 156:Drivers/CMSIS/DSP/Source/MatrixFunctions/arm_mat_mult_f32.c ****           colCnt--;
 159              		.loc 1 156 11 is_stmt 1 view .LVU57
 160              		.loc 1 156 17 is_stmt 0 view .LVU58
 161 006e 0139     		subs	r1, r1, #1
 162              	.LVL29:
 163              		.loc 1 156 17 view .LVU59
 164 0070 89B2     		uxth	r1, r1
 165              	.LVL30:
 166              	.L2:
 133:Drivers/CMSIS/DSP/Source/MatrixFunctions/arm_mat_mult_f32.c ****         {
 167              		.loc 1 133 23 is_stmt 1 view .LVU60
 168 0072 0029     		cmp	r1, #0
 169 0074 D2D1     		bne	.L3
 157:Drivers/CMSIS/DSP/Source/MatrixFunctions/arm_mat_mult_f32.c ****         }
 158:Drivers/CMSIS/DSP/Source/MatrixFunctions/arm_mat_mult_f32.c **** 
 159:Drivers/CMSIS/DSP/Source/MatrixFunctions/arm_mat_mult_f32.c ****         /* If the columns of pSrcA is not a multiple of 4, compute any remaining MACs here.
 160:Drivers/CMSIS/DSP/Source/MatrixFunctions/arm_mat_mult_f32.c ****          ** No loop unrolling is used. */
 161:Drivers/CMSIS/DSP/Source/MatrixFunctions/arm_mat_mult_f32.c ****         colCnt = numColsA % 0x4U;
 170              		.loc 1 161 9 view .LVU61
 171              		.loc 1 161 16 is_stmt 0 view .LVU62
 172 0076 0EF00301 		and	r1, lr, #3
 173              	.LVL31:
 162:Drivers/CMSIS/DSP/Source/MatrixFunctions/arm_mat_mult_f32.c **** 
 163:Drivers/CMSIS/DSP/Source/MatrixFunctions/arm_mat_mult_f32.c ****         while (colCnt > 0U)
 174              		.loc 1 163 9 is_stmt 1 view .LVU63
 175              		.loc 1 163 15 is_stmt 0 view .LVU64
 176 007a 0BE0     		b	.L4
 177              	.L5:
 164:Drivers/CMSIS/DSP/Source/MatrixFunctions/arm_mat_mult_f32.c ****         {
 165:Drivers/CMSIS/DSP/Source/MatrixFunctions/arm_mat_mult_f32.c ****           /* c(m,n) = a(1,1)*b(1,1) + a(1,2) * b(2,1) + .... + a(m,p)*b(p,n) */
ARM GAS  /tmp/ccPG2jJw.s 			page 7


 166:Drivers/CMSIS/DSP/Source/MatrixFunctions/arm_mat_mult_f32.c ****           sum += *pIn1++ * (*pIn2);
 178              		.loc 1 166 11 is_stmt 1 view .LVU65
 179              	.LVL32:
 180              		.loc 1 166 18 is_stmt 0 view .LVU66
 181 007c B2EC017A 		vldmia.32	r2!, {s14}
 182              	.LVL33:
 183              		.loc 1 166 29 view .LVU67
 184 0080 D3ED006A 		vldr.32	s13, [r3]
 185              		.loc 1 166 26 view .LVU68
 186 0084 27EE267A 		vmul.f32	s14, s14, s13
 187              		.loc 1 166 15 view .LVU69
 188 0088 77EE877A 		vadd.f32	s15, s15, s14
 189              	.LVL34:
 167:Drivers/CMSIS/DSP/Source/MatrixFunctions/arm_mat_mult_f32.c ****           pIn2 += numColsB;
 190              		.loc 1 167 11 is_stmt 1 view .LVU70
 191              		.loc 1 167 16 is_stmt 0 view .LVU71
 192 008c 03EB8003 		add	r3, r3, r0, lsl #2
 193              	.LVL35:
 168:Drivers/CMSIS/DSP/Source/MatrixFunctions/arm_mat_mult_f32.c **** 
 169:Drivers/CMSIS/DSP/Source/MatrixFunctions/arm_mat_mult_f32.c ****           /* Decrement the loop counter */
 170:Drivers/CMSIS/DSP/Source/MatrixFunctions/arm_mat_mult_f32.c ****           colCnt--;
 194              		.loc 1 170 11 is_stmt 1 view .LVU72
 195              		.loc 1 170 17 is_stmt 0 view .LVU73
 196 0090 0139     		subs	r1, r1, #1
 197              	.LVL36:
 198              		.loc 1 170 17 view .LVU74
 199 0092 89B2     		uxth	r1, r1
 200              	.LVL37:
 201              	.L4:
 163:Drivers/CMSIS/DSP/Source/MatrixFunctions/arm_mat_mult_f32.c ****         {
 202              		.loc 1 163 23 is_stmt 1 view .LVU75
 203 0094 0029     		cmp	r1, #0
 204 0096 F1D1     		bne	.L5
 171:Drivers/CMSIS/DSP/Source/MatrixFunctions/arm_mat_mult_f32.c ****         }
 172:Drivers/CMSIS/DSP/Source/MatrixFunctions/arm_mat_mult_f32.c **** 
 173:Drivers/CMSIS/DSP/Source/MatrixFunctions/arm_mat_mult_f32.c ****         /* Store the result in the destination buffer */
 174:Drivers/CMSIS/DSP/Source/MatrixFunctions/arm_mat_mult_f32.c ****         *px++ = sum;
 205              		.loc 1 174 9 view .LVU76
 206              	.LVL38:
 207              		.loc 1 174 15 is_stmt 0 view .LVU77
 208 0098 EAEC017A 		vstmia.32	r10!, {s15}
 209              	.LVL39:
 175:Drivers/CMSIS/DSP/Source/MatrixFunctions/arm_mat_mult_f32.c **** 
 176:Drivers/CMSIS/DSP/Source/MatrixFunctions/arm_mat_mult_f32.c ****         /* Update the pointer pIn2 to point to the  starting address of the next column */
 177:Drivers/CMSIS/DSP/Source/MatrixFunctions/arm_mat_mult_f32.c ****         j++;
 210              		.loc 1 177 9 is_stmt 1 view .LVU78
 211              		.loc 1 177 10 is_stmt 0 view .LVU79
 212 009c 0CF1010C 		add	ip, ip, #1
 213              	.LVL40:
 214              		.loc 1 177 10 view .LVU80
 215 00a0 1FFA8CFC 		uxth	ip, ip
 216              	.LVL41:
 178:Drivers/CMSIS/DSP/Source/MatrixFunctions/arm_mat_mult_f32.c ****         pIn2 = pSrcB->pData + j;
 217              		.loc 1 178 9 is_stmt 1 view .LVU81
 218              		.loc 1 178 21 is_stmt 0 view .LVU82
 219 00a4 7368     		ldr	r3, [r6, #4]
 220              	.LVL42:
ARM GAS  /tmp/ccPG2jJw.s 			page 8


 221              		.loc 1 178 14 view .LVU83
 222 00a6 03EB8C03 		add	r3, r3, ip, lsl #2
 223              	.LVL43:
 179:Drivers/CMSIS/DSP/Source/MatrixFunctions/arm_mat_mult_f32.c **** 
 180:Drivers/CMSIS/DSP/Source/MatrixFunctions/arm_mat_mult_f32.c ****         /* Decrement the column loop counter */
 181:Drivers/CMSIS/DSP/Source/MatrixFunctions/arm_mat_mult_f32.c ****         col--;
 224              		.loc 1 181 9 is_stmt 1 view .LVU84
 225              		.loc 1 181 12 is_stmt 0 view .LVU85
 226 00aa 013C     		subs	r4, r4, #1
 227              	.LVL44:
 228              		.loc 1 181 12 view .LVU86
 229 00ac A4B2     		uxth	r4, r4
 230              	.LVL45:
 182:Drivers/CMSIS/DSP/Source/MatrixFunctions/arm_mat_mult_f32.c **** 
 183:Drivers/CMSIS/DSP/Source/MatrixFunctions/arm_mat_mult_f32.c ****       } while (col > 0U);
 231              		.loc 1 183 20 is_stmt 1 view .LVU87
 232 00ae 2CB1     		cbz	r4, .L10
 233              	.LVL46:
 234              	.L6:
 121:Drivers/CMSIS/DSP/Source/MatrixFunctions/arm_mat_mult_f32.c ****       {
 235              		.loc 1 121 7 view .LVU88
 124:Drivers/CMSIS/DSP/Source/MatrixFunctions/arm_mat_mult_f32.c **** 
 236              		.loc 1 124 9 view .LVU89
 127:Drivers/CMSIS/DSP/Source/MatrixFunctions/arm_mat_mult_f32.c **** 
 237              		.loc 1 127 9 view .LVU90
 130:Drivers/CMSIS/DSP/Source/MatrixFunctions/arm_mat_mult_f32.c **** 
 238              		.loc 1 130 9 view .LVU91
 130:Drivers/CMSIS/DSP/Source/MatrixFunctions/arm_mat_mult_f32.c **** 
 239              		.loc 1 130 16 is_stmt 0 view .LVU92
 240 00b0 4FEA9E01 		lsr	r1, lr, #2
 241              	.LVL47:
 133:Drivers/CMSIS/DSP/Source/MatrixFunctions/arm_mat_mult_f32.c ****         {
 242              		.loc 1 133 9 is_stmt 1 view .LVU93
 127:Drivers/CMSIS/DSP/Source/MatrixFunctions/arm_mat_mult_f32.c **** 
 243              		.loc 1 127 14 is_stmt 0 view .LVU94
 244 00b4 2A46     		mov	r2, r5
 124:Drivers/CMSIS/DSP/Source/MatrixFunctions/arm_mat_mult_f32.c **** 
 245              		.loc 1 124 13 view .LVU95
 246 00b6 DFED0C7A 		vldr.32	s15, .L12
 133:Drivers/CMSIS/DSP/Source/MatrixFunctions/arm_mat_mult_f32.c ****         {
 247              		.loc 1 133 15 view .LVU96
 248 00ba DAE7     		b	.L2
 249              	.LVL48:
 250              	.L10:
 184:Drivers/CMSIS/DSP/Source/MatrixFunctions/arm_mat_mult_f32.c **** 
 185:Drivers/CMSIS/DSP/Source/MatrixFunctions/arm_mat_mult_f32.c **** #else
 186:Drivers/CMSIS/DSP/Source/MatrixFunctions/arm_mat_mult_f32.c **** 
 187:Drivers/CMSIS/DSP/Source/MatrixFunctions/arm_mat_mult_f32.c ****   /* Run the below code for Cortex-M0 */
 188:Drivers/CMSIS/DSP/Source/MatrixFunctions/arm_mat_mult_f32.c **** 
 189:Drivers/CMSIS/DSP/Source/MatrixFunctions/arm_mat_mult_f32.c ****   float32_t *pInB = pSrcB->pData;                /* input data matrix pointer B */
 190:Drivers/CMSIS/DSP/Source/MatrixFunctions/arm_mat_mult_f32.c ****   uint16_t col, i = 0U, row = numRowsA, colCnt;  /* loop counters */
 191:Drivers/CMSIS/DSP/Source/MatrixFunctions/arm_mat_mult_f32.c ****   arm_status status;                             /* status of matrix multiplication */
 192:Drivers/CMSIS/DSP/Source/MatrixFunctions/arm_mat_mult_f32.c **** 
 193:Drivers/CMSIS/DSP/Source/MatrixFunctions/arm_mat_mult_f32.c **** #ifdef ARM_MATH_MATRIX_CHECK
 194:Drivers/CMSIS/DSP/Source/MatrixFunctions/arm_mat_mult_f32.c **** 
 195:Drivers/CMSIS/DSP/Source/MatrixFunctions/arm_mat_mult_f32.c ****   /* Check for matrix mismatch condition */
 196:Drivers/CMSIS/DSP/Source/MatrixFunctions/arm_mat_mult_f32.c ****   if ((pSrcA->numCols != pSrcB->numRows) ||
ARM GAS  /tmp/ccPG2jJw.s 			page 9


 197:Drivers/CMSIS/DSP/Source/MatrixFunctions/arm_mat_mult_f32.c ****      (pSrcA->numRows != pDst->numRows) || (pSrcB->numCols != pDst->numCols))
 198:Drivers/CMSIS/DSP/Source/MatrixFunctions/arm_mat_mult_f32.c ****   {
 199:Drivers/CMSIS/DSP/Source/MatrixFunctions/arm_mat_mult_f32.c **** 
 200:Drivers/CMSIS/DSP/Source/MatrixFunctions/arm_mat_mult_f32.c ****     /* Set status as ARM_MATH_SIZE_MISMATCH */
 201:Drivers/CMSIS/DSP/Source/MatrixFunctions/arm_mat_mult_f32.c ****     status = ARM_MATH_SIZE_MISMATCH;
 202:Drivers/CMSIS/DSP/Source/MatrixFunctions/arm_mat_mult_f32.c ****   }
 203:Drivers/CMSIS/DSP/Source/MatrixFunctions/arm_mat_mult_f32.c ****   else
 204:Drivers/CMSIS/DSP/Source/MatrixFunctions/arm_mat_mult_f32.c **** #endif /*      #ifdef ARM_MATH_MATRIX_CHECK    */
 205:Drivers/CMSIS/DSP/Source/MatrixFunctions/arm_mat_mult_f32.c **** 
 206:Drivers/CMSIS/DSP/Source/MatrixFunctions/arm_mat_mult_f32.c ****   {
 207:Drivers/CMSIS/DSP/Source/MatrixFunctions/arm_mat_mult_f32.c ****     /* The following loop performs the dot-product of each row in pInA with each column in pInB */
 208:Drivers/CMSIS/DSP/Source/MatrixFunctions/arm_mat_mult_f32.c ****     /* row loop */
 209:Drivers/CMSIS/DSP/Source/MatrixFunctions/arm_mat_mult_f32.c ****     do
 210:Drivers/CMSIS/DSP/Source/MatrixFunctions/arm_mat_mult_f32.c ****     {
 211:Drivers/CMSIS/DSP/Source/MatrixFunctions/arm_mat_mult_f32.c ****       /* Output pointer is set to starting address of the row being processed */
 212:Drivers/CMSIS/DSP/Source/MatrixFunctions/arm_mat_mult_f32.c ****       px = pOut + i;
 213:Drivers/CMSIS/DSP/Source/MatrixFunctions/arm_mat_mult_f32.c **** 
 214:Drivers/CMSIS/DSP/Source/MatrixFunctions/arm_mat_mult_f32.c ****       /* For every row wise process, the column loop counter is to be initiated */
 215:Drivers/CMSIS/DSP/Source/MatrixFunctions/arm_mat_mult_f32.c ****       col = numColsB;
 216:Drivers/CMSIS/DSP/Source/MatrixFunctions/arm_mat_mult_f32.c **** 
 217:Drivers/CMSIS/DSP/Source/MatrixFunctions/arm_mat_mult_f32.c ****       /* For every row wise process, the pIn2 pointer is set
 218:Drivers/CMSIS/DSP/Source/MatrixFunctions/arm_mat_mult_f32.c ****        ** to the starting address of the pSrcB data */
 219:Drivers/CMSIS/DSP/Source/MatrixFunctions/arm_mat_mult_f32.c ****       pIn2 = pSrcB->pData;
 220:Drivers/CMSIS/DSP/Source/MatrixFunctions/arm_mat_mult_f32.c **** 
 221:Drivers/CMSIS/DSP/Source/MatrixFunctions/arm_mat_mult_f32.c ****       /* column loop */
 222:Drivers/CMSIS/DSP/Source/MatrixFunctions/arm_mat_mult_f32.c ****       do
 223:Drivers/CMSIS/DSP/Source/MatrixFunctions/arm_mat_mult_f32.c ****       {
 224:Drivers/CMSIS/DSP/Source/MatrixFunctions/arm_mat_mult_f32.c ****         /* Set the variable sum, that acts as accumulator, to zero */
 225:Drivers/CMSIS/DSP/Source/MatrixFunctions/arm_mat_mult_f32.c ****         sum = 0.0f;
 226:Drivers/CMSIS/DSP/Source/MatrixFunctions/arm_mat_mult_f32.c **** 
 227:Drivers/CMSIS/DSP/Source/MatrixFunctions/arm_mat_mult_f32.c ****         /* Initialize the pointer pIn1 to point to the starting address of the row being processed 
 228:Drivers/CMSIS/DSP/Source/MatrixFunctions/arm_mat_mult_f32.c ****         pIn1 = pInA;
 229:Drivers/CMSIS/DSP/Source/MatrixFunctions/arm_mat_mult_f32.c **** 
 230:Drivers/CMSIS/DSP/Source/MatrixFunctions/arm_mat_mult_f32.c ****         /* Matrix A columns number of MAC operations are to be performed */
 231:Drivers/CMSIS/DSP/Source/MatrixFunctions/arm_mat_mult_f32.c ****         colCnt = numColsA;
 232:Drivers/CMSIS/DSP/Source/MatrixFunctions/arm_mat_mult_f32.c **** 
 233:Drivers/CMSIS/DSP/Source/MatrixFunctions/arm_mat_mult_f32.c ****         while (colCnt > 0U)
 234:Drivers/CMSIS/DSP/Source/MatrixFunctions/arm_mat_mult_f32.c ****         {
 235:Drivers/CMSIS/DSP/Source/MatrixFunctions/arm_mat_mult_f32.c ****           /* c(m,n) = a(1,1)*b(1,1) + a(1,2) * b(2,1) + .... + a(m,p)*b(p,n) */
 236:Drivers/CMSIS/DSP/Source/MatrixFunctions/arm_mat_mult_f32.c ****           sum += *pIn1++ * (*pIn2);
 237:Drivers/CMSIS/DSP/Source/MatrixFunctions/arm_mat_mult_f32.c ****           pIn2 += numColsB;
 238:Drivers/CMSIS/DSP/Source/MatrixFunctions/arm_mat_mult_f32.c **** 
 239:Drivers/CMSIS/DSP/Source/MatrixFunctions/arm_mat_mult_f32.c ****           /* Decrement the loop counter */
 240:Drivers/CMSIS/DSP/Source/MatrixFunctions/arm_mat_mult_f32.c ****           colCnt--;
 241:Drivers/CMSIS/DSP/Source/MatrixFunctions/arm_mat_mult_f32.c ****         }
 242:Drivers/CMSIS/DSP/Source/MatrixFunctions/arm_mat_mult_f32.c **** 
 243:Drivers/CMSIS/DSP/Source/MatrixFunctions/arm_mat_mult_f32.c ****         /* Store the result in the destination buffer */
 244:Drivers/CMSIS/DSP/Source/MatrixFunctions/arm_mat_mult_f32.c ****         *px++ = sum;
 245:Drivers/CMSIS/DSP/Source/MatrixFunctions/arm_mat_mult_f32.c **** 
 246:Drivers/CMSIS/DSP/Source/MatrixFunctions/arm_mat_mult_f32.c ****         /* Decrement the column loop counter */
 247:Drivers/CMSIS/DSP/Source/MatrixFunctions/arm_mat_mult_f32.c ****         col--;
 248:Drivers/CMSIS/DSP/Source/MatrixFunctions/arm_mat_mult_f32.c **** 
 249:Drivers/CMSIS/DSP/Source/MatrixFunctions/arm_mat_mult_f32.c ****         /* Update the pointer pIn2 to point to the  starting address of the next column */
 250:Drivers/CMSIS/DSP/Source/MatrixFunctions/arm_mat_mult_f32.c ****         pIn2 = pInB + (numColsB - col);
 251:Drivers/CMSIS/DSP/Source/MatrixFunctions/arm_mat_mult_f32.c **** 
 252:Drivers/CMSIS/DSP/Source/MatrixFunctions/arm_mat_mult_f32.c ****       } while (col > 0U);
 253:Drivers/CMSIS/DSP/Source/MatrixFunctions/arm_mat_mult_f32.c **** 
ARM GAS  /tmp/ccPG2jJw.s 			page 10


 254:Drivers/CMSIS/DSP/Source/MatrixFunctions/arm_mat_mult_f32.c **** #endif /* #if defined (ARM_MATH_DSP) */
 255:Drivers/CMSIS/DSP/Source/MatrixFunctions/arm_mat_mult_f32.c **** 
 256:Drivers/CMSIS/DSP/Source/MatrixFunctions/arm_mat_mult_f32.c ****       /* Update the pointer pInA to point to the  starting address of the next row */
 257:Drivers/CMSIS/DSP/Source/MatrixFunctions/arm_mat_mult_f32.c ****       i = i + numColsB;
 251              		.loc 1 257 7 is_stmt 1 view .LVU97
 252              		.loc 1 257 9 is_stmt 0 view .LVU98
 253 00bc 0744     		add	r7, r7, r0
 254              	.LVL49:
 255              		.loc 1 257 9 view .LVU99
 256 00be BFB2     		uxth	r7, r7
 257              	.LVL50:
 258:Drivers/CMSIS/DSP/Source/MatrixFunctions/arm_mat_mult_f32.c ****       pInA = pInA + numColsA;
 258              		.loc 1 258 7 is_stmt 1 view .LVU100
 259              		.loc 1 258 12 is_stmt 0 view .LVU101
 260 00c0 05EB8E05 		add	r5, r5, lr, lsl #2
 261              	.LVL51:
 259:Drivers/CMSIS/DSP/Source/MatrixFunctions/arm_mat_mult_f32.c **** 
 260:Drivers/CMSIS/DSP/Source/MatrixFunctions/arm_mat_mult_f32.c ****       /* Decrement the row loop counter */
 261:Drivers/CMSIS/DSP/Source/MatrixFunctions/arm_mat_mult_f32.c ****       row--;
 262              		.loc 1 261 7 is_stmt 1 view .LVU102
 263              		.loc 1 261 10 is_stmt 0 view .LVU103
 264 00c4 08F1FF38 		add	r8, r8, #-1
 265              	.LVL52:
 266              		.loc 1 261 10 view .LVU104
 267 00c8 1FFA88F8 		uxth	r8, r8
 268              	.LVL53:
 262:Drivers/CMSIS/DSP/Source/MatrixFunctions/arm_mat_mult_f32.c **** 
 263:Drivers/CMSIS/DSP/Source/MatrixFunctions/arm_mat_mult_f32.c ****     } while (row > 0U);
 269              		.loc 1 263 18 is_stmt 1 view .LVU105
 270 00cc B8F1000F 		cmp	r8, #0
 271 00d0 06D0     		beq	.L11
 272              	.LVL54:
 273              	.L7:
  87:Drivers/CMSIS/DSP/Source/MatrixFunctions/arm_mat_mult_f32.c **** 
 274              		.loc 1 87 3 view .LVU106
 106:Drivers/CMSIS/DSP/Source/MatrixFunctions/arm_mat_mult_f32.c ****     {
 275              		.loc 1 106 5 view .LVU107
 109:Drivers/CMSIS/DSP/Source/MatrixFunctions/arm_mat_mult_f32.c **** 
 276              		.loc 1 109 7 view .LVU108
 109:Drivers/CMSIS/DSP/Source/MatrixFunctions/arm_mat_mult_f32.c **** 
 277              		.loc 1 109 10 is_stmt 0 view .LVU109
 278 00d2 09EB870A 		add	r10, r9, r7, lsl #2
 279              	.LVL55:
 112:Drivers/CMSIS/DSP/Source/MatrixFunctions/arm_mat_mult_f32.c **** 
 280              		.loc 1 112 7 is_stmt 1 view .LVU110
 116:Drivers/CMSIS/DSP/Source/MatrixFunctions/arm_mat_mult_f32.c **** 
 281              		.loc 1 116 7 view .LVU111
 116:Drivers/CMSIS/DSP/Source/MatrixFunctions/arm_mat_mult_f32.c **** 
 282              		.loc 1 116 12 is_stmt 0 view .LVU112
 283 00d6 7368     		ldr	r3, [r6, #4]
 284              	.LVL56:
 118:Drivers/CMSIS/DSP/Source/MatrixFunctions/arm_mat_mult_f32.c **** 
 285              		.loc 1 118 7 is_stmt 1 view .LVU113
 112:Drivers/CMSIS/DSP/Source/MatrixFunctions/arm_mat_mult_f32.c **** 
 286              		.loc 1 112 11 is_stmt 0 view .LVU114
 287 00d8 0446     		mov	r4, r0
 118:Drivers/CMSIS/DSP/Source/MatrixFunctions/arm_mat_mult_f32.c **** 
ARM GAS  /tmp/ccPG2jJw.s 			page 11


 288              		.loc 1 118 9 view .LVU115
 289 00da 4FF0000C 		mov	ip, #0
 290 00de E7E7     		b	.L6
 291              	.LVL57:
 292              	.L11:
 264:Drivers/CMSIS/DSP/Source/MatrixFunctions/arm_mat_mult_f32.c ****     /* Set status as ARM_MATH_SUCCESS */
 265:Drivers/CMSIS/DSP/Source/MatrixFunctions/arm_mat_mult_f32.c ****     status = ARM_MATH_SUCCESS;
 293              		.loc 1 265 5 is_stmt 1 view .LVU116
 266:Drivers/CMSIS/DSP/Source/MatrixFunctions/arm_mat_mult_f32.c ****   }
 267:Drivers/CMSIS/DSP/Source/MatrixFunctions/arm_mat_mult_f32.c **** 
 268:Drivers/CMSIS/DSP/Source/MatrixFunctions/arm_mat_mult_f32.c ****   /* Return to application */
 269:Drivers/CMSIS/DSP/Source/MatrixFunctions/arm_mat_mult_f32.c ****   return (status);
 294              		.loc 1 269 3 view .LVU117
 270:Drivers/CMSIS/DSP/Source/MatrixFunctions/arm_mat_mult_f32.c **** }
 295              		.loc 1 270 1 is_stmt 0 view .LVU118
 296 00e0 0020     		movs	r0, #0
 297              	.LVL58:
 298              		.loc 1 270 1 view .LVU119
 299 00e2 BDE8F087 		pop	{r4, r5, r6, r7, r8, r9, r10, pc}
 300              	.LVL59:
 301              	.L13:
 302              		.loc 1 270 1 view .LVU120
 303 00e6 00BF     		.align	2
 304              	.L12:
 305 00e8 00000000 		.word	0
 306              		.cfi_endproc
 307              	.LFE135:
 309              		.text
 310              	.Letext0:
 311              		.file 2 "/usr/arm-none-eabi/include/machine/_default_types.h"
 312              		.file 3 "/usr/arm-none-eabi/include/sys/_stdint.h"
 313              		.file 4 "Drivers/CMSIS/DSP/Include/arm_math.h"
ARM GAS  /tmp/ccPG2jJw.s 			page 12

